target datalayout = "e-m:e-p270:32:32-p271:32:32-p272:64:64-i64:64-i128:128-f80:128-n8:16:32:64-S128"
target triple = "x86_64-unknown-linux-gnu"

%struct.SharedEncoderDictionary = type { i32, %struct.CompoundDictionary, %struct.ContextualEncoderDictionary, i32 }
%struct.CompoundDictionary = type { i64, i64, [16 x ptr], [16 x ptr], [16 x i64], i64, [16 x ptr] }
%struct.ContextualEncoderDictionary = type { i32, i8, [64 x i8], [64 x ptr], i64, %struct.BrotliEncoderDictionary, ptr }
%struct.BrotliEncoderDictionary = type { ptr, i32, i32, i64, ptr, ptr, ptr, ptr, %struct.BrotliTrie, i32, ptr, ptr, ptr, i64, ptr, i64, ptr, ptr }
%struct.BrotliTrie = type { ptr, i64, i64, %struct.BrotliTrieNode }
%struct.BrotliTrieNode = type { i8, i8, i8, i32, i32 }

; Function Attrs: nounwind uwtable
define internal void @BrotliTrieFree(ptr noundef %m, ptr noundef %trie) #0 {
entry:
  %m.addr = alloca ptr, align 8
  %trie.addr = alloca ptr, align 8
  store ptr %m, ptr %m.addr, align 8
  store ptr %trie, ptr %trie.addr, align 8
  %0 = load ptr, ptr %m.addr, align 8
  %1 = load ptr, ptr %trie.addr, align 8
  %pool = getelementptr inbounds %struct.BrotliTrie, ptr %1, i32 0, i32 0
  %2 = load ptr, ptr %pool, align 8
  call void @BrotliFree(ptr noundef %0, ptr noundef %2)
  ret void
}

; Function Attrs: nounwind uwtable
define internal void @BrotliDestroyEncoderDictionary(ptr noundef %m, ptr noundef %dict) #0 {
entry:
  %m.addr = alloca ptr, align 8
  %dict.addr = alloca ptr, align 8
  store ptr %m, ptr %m.addr, align 8
  store ptr %dict, ptr %dict.addr, align 8
  %0 = load ptr, ptr %m.addr, align 8
  %1 = load ptr, ptr %dict.addr, align 8
  %hash_table_data_words_ = getelementptr inbounds %struct.BrotliEncoderDictionary, ptr %1, i32 0, i32 11
  %2 = load ptr, ptr %hash_table_data_words_, align 8
  call void @BrotliFree(ptr noundef %0, ptr noundef %2)
  %3 = load ptr, ptr %m.addr, align 8
  %4 = load ptr, ptr %dict.addr, align 8
  %hash_table_data_lengths_ = getelementptr inbounds %struct.BrotliEncoderDictionary, ptr %4, i32 0, i32 12
  %5 = load ptr, ptr %hash_table_data_lengths_, align 8
  call void @BrotliFree(ptr noundef %3, ptr noundef %5)
  %6 = load ptr, ptr %m.addr, align 8
  %7 = load ptr, ptr %dict.addr, align 8
  %buckets_data_ = getelementptr inbounds %struct.BrotliEncoderDictionary, ptr %7, i32 0, i32 14
  %8 = load ptr, ptr %buckets_data_, align 8
  call void @BrotliFree(ptr noundef %6, ptr noundef %8)
  %9 = load ptr, ptr %m.addr, align 8
  %10 = load ptr, ptr %dict.addr, align 8
  %dict_words_data_ = getelementptr inbounds %struct.BrotliEncoderDictionary, ptr %10, i32 0, i32 16
  %11 = load ptr, ptr %dict_words_data_, align 8
  call void @BrotliFree(ptr noundef %9, ptr noundef %11)
  %12 = load ptr, ptr %m.addr, align 8
  %13 = load ptr, ptr %dict.addr, align 8
  %words_instance_ = getelementptr inbounds %struct.BrotliEncoderDictionary, ptr %13, i32 0, i32 17
  %14 = load ptr, ptr %words_instance_, align 8
  call void @BrotliFree(ptr noundef %12, ptr noundef %14)
  %15 = load ptr, ptr %m.addr, align 8
  %16 = load ptr, ptr %dict.addr, align 8
  %trie = getelementptr inbounds %struct.BrotliEncoderDictionary, ptr %16, i32 0, i32 8
  call void @BrotliTrieFree(ptr noundef %15, ptr noundef %trie)
  ret void
}

; Function Attrs: nounwind uwtable
define hidden void @BrotliCleanupSharedEncoderDictionary(ptr noundef %m, ptr noundef %dict) #0 {
entry:
  %m.addr = alloca ptr, align 8
  %dict.addr = alloca ptr, align 8
  %i = alloca i64, align 8
  store ptr %m, ptr %m.addr, align 8
  store ptr %dict, ptr %dict.addr, align 8
  store i64 0, ptr %i, align 8
  br label %for.cond

for.cond:                                         ; preds = %for.inc, %entry
  %0 = load i64, ptr %i, align 8
  %1 = load ptr, ptr %dict.addr, align 8
  %compound = getelementptr inbounds %struct.SharedEncoderDictionary, ptr %1, i32 0, i32 1
  %num_prepared_instances_ = getelementptr inbounds %struct.CompoundDictionary, ptr %compound, i32 0, i32 5
  %2 = load i64, ptr %num_prepared_instances_, align 8
  %cmp = icmp ult i64 %0, %2
  br i1 %cmp, label %for.body, label %for.end

for.body:                                         ; preds = %for.cond
  %3 = load ptr, ptr %m.addr, align 8
  %4 = load ptr, ptr %dict.addr, align 8
  %compound1 = getelementptr inbounds %struct.SharedEncoderDictionary, ptr %4, i32 0, i32 1
  %prepared_instances_ = getelementptr inbounds %struct.CompoundDictionary, ptr %compound1, i32 0, i32 6
  %5 = load i64, ptr %i, align 8
  %arrayidx = getelementptr inbounds [16 x ptr], ptr %prepared_instances_, i64 0, i64 %5
  %6 = load ptr, ptr %arrayidx, align 8
  call void @DestroyPreparedDictionary(ptr noundef %3, ptr noundef %6)
  br label %for.inc

for.inc:                                          ; preds = %for.body
  %7 = load i64, ptr %i, align 8
  %inc = add i64 %7, 1
  store i64 %inc, ptr %i, align 8
  br label %for.cond, !llvm.loop !4

for.end:                                          ; preds = %for.cond
  %8 = load ptr, ptr %dict.addr, align 8
  %contextual = getelementptr inbounds %struct.SharedEncoderDictionary, ptr %8, i32 0, i32 2
  %num_instances_ = getelementptr inbounds %struct.ContextualEncoderDictionary, ptr %contextual, i32 0, i32 4
  %9 = load i64, ptr %num_instances_, align 8
  %cmp2 = icmp eq i64 %9, 1
  br i1 %cmp2, label %if.then, label %if.else

if.then:                                          ; preds = %for.end
  %10 = load ptr, ptr %m.addr, align 8
  %11 = load ptr, ptr %dict.addr, align 8
  %contextual3 = getelementptr inbounds %struct.SharedEncoderDictionary, ptr %11, i32 0, i32 2
  %instance_ = getelementptr inbounds %struct.ContextualEncoderDictionary, ptr %contextual3, i32 0, i32 5
  call void @BrotliDestroyEncoderDictionary(ptr noundef %10, ptr noundef %instance_)
  br label %if.end20

if.else:                                          ; preds = %for.end
  %12 = load ptr, ptr %dict.addr, align 8
  %contextual4 = getelementptr inbounds %struct.SharedEncoderDictionary, ptr %12, i32 0, i32 2
  %num_instances_5 = getelementptr inbounds %struct.ContextualEncoderDictionary, ptr %contextual4, i32 0, i32 4
  %13 = load i64, ptr %num_instances_5, align 8
  %cmp6 = icmp ugt i64 %13, 1
  br i1 %cmp6, label %if.then7, label %if.end

if.then7:                                         ; preds = %if.else
  store i64 0, ptr %i, align 8
  br label %for.cond8

for.cond8:                                        ; preds = %for.inc15, %if.then7
  %14 = load i64, ptr %i, align 8
  %15 = load ptr, ptr %dict.addr, align 8
  %contextual9 = getelementptr inbounds %struct.SharedEncoderDictionary, ptr %15, i32 0, i32 2
  %num_instances_10 = getelementptr inbounds %struct.ContextualEncoderDictionary, ptr %contextual9, i32 0, i32 4
  %16 = load i64, ptr %num_instances_10, align 8
  %cmp11 = icmp ult i64 %14, %16
  br i1 %cmp11, label %for.body12, label %for.end17

for.body12:                                       ; preds = %for.cond8
  %17 = load ptr, ptr %m.addr, align 8
  %18 = load ptr, ptr %dict.addr, align 8
  %contextual13 = getelementptr inbounds %struct.SharedEncoderDictionary, ptr %18, i32 0, i32 2
  %instances_ = getelementptr inbounds %struct.ContextualEncoderDictionary, ptr %contextual13, i32 0, i32 6
  %19 = load ptr, ptr %instances_, align 8
  %20 = load i64, ptr %i, align 8
  %arrayidx14 = getelementptr inbounds %struct.BrotliEncoderDictionary, ptr %19, i64 %20
  call void @BrotliDestroyEncoderDictionary(ptr noundef %17, ptr noundef %arrayidx14)
  br label %for.inc15

for.inc15:                                        ; preds = %for.body12
  %21 = load i64, ptr %i, align 8
  %inc16 = add i64 %21, 1
  store i64 %inc16, ptr %i, align 8
  br label %for.cond8, !llvm.loop !6

for.end17:                                        ; preds = %for.cond8
  %22 = load ptr, ptr %m.addr, align 8
  %23 = load ptr, ptr %dict.addr, align 8
  %contextual18 = getelementptr inbounds %struct.SharedEncoderDictionary, ptr %23, i32 0, i32 2
  %instances_19 = getelementptr inbounds %struct.ContextualEncoderDictionary, ptr %contextual18, i32 0, i32 6
  %24 = load ptr, ptr %instances_19, align 8
  call void @BrotliFree(ptr noundef %22, ptr noundef %24)
  br label %if.end

if.end:                                           ; preds = %for.end17, %if.else
  br label %if.end20

if.end20:                                         ; preds = %if.end, %if.then
  ret void
}