; Function Attrs: nounwind uwtable
define hidden void @BrotliCleanupSharedEncoderDictionary(ptr noundef %m, ptr noundef readonly captures(none) %dict) local_unnamed_addr #0 {
entry:
  %num_prepared_instances_ = getelementptr inbounds nuw i8, ptr %dict, i64 408
  %0 = load i64, ptr %num_prepared_instances_, align 8
  %cmp23.not = icmp eq i64 %0, 0
  br i1 %cmp23.not, label %for.end, label %for.body.lr.ph

for.body.lr.ph:                                   ; preds = %entry
  %prepared_instances_ = getelementptr inbounds nuw i8, ptr %dict, i64 416
  br label %for.body

for.body:                                         ; preds = %for.body.lr.ph, %for.body
  %i.024 = phi i64 [ 0, %for.body.lr.ph ], [ %inc, %for.body ]
  %arrayidx = getelementptr inbounds [16 x ptr], ptr %prepared_instances_, i64 0, i64 %i.024
  %1 = load ptr, ptr %arrayidx, align 8
  tail call void @DestroyPreparedDictionary(ptr noundef %m, ptr noundef %1) #3
  %inc = add nuw i64 %i.024, 1
  %2 = load i64, ptr %num_prepared_instances_, align 8
  %cmp = icmp ult i64 %inc, %2
  br i1 %cmp, label %for.body, label %for.end, !llvm.loop !4

for.end:                                          ; preds = %for.body, %entry
  %num_instances_ = getelementptr inbounds nuw i8, ptr %dict, i64 1128
  %3 = load i64, ptr %num_instances_, align 8
  switch i64 %3, label %for.body12.lr.ph [
    i64 1, label %if.then
    i64 0, label %if.end20
  ]

for.body12.lr.ph:                                 ; preds = %for.end
  %instances_ = getelementptr inbounds nuw i8, ptr %dict, i64 1304
  br label %for.body12

if.then:                                          ; preds = %for.end
  %hash_table_data_words_.i = getelementptr inbounds nuw i8, ptr %dict, i64 1248
  %4 = load ptr, ptr %hash_table_data_words_.i, align 8
  tail call void @BrotliFree(ptr noundef %m, ptr noundef %4) #3
  %hash_table_data_lengths_.i = getelementptr inbounds nuw i8, ptr %dict, i64 1256
  %5 = load ptr, ptr %hash_table_data_lengths_.i, align 8
  tail call void @BrotliFree(ptr noundef %m, ptr noundef %5) #3
  %buckets_data_.i = getelementptr inbounds nuw i8, ptr %dict, i64 1272
  %6 = load ptr, ptr %buckets_data_.i, align 8
  tail call void @BrotliFree(ptr noundef %m, ptr noundef %6) #3
  %dict_words_data_.i = getelementptr inbounds nuw i8, ptr %dict, i64 1288
  %7 = load ptr, ptr %dict_words_data_.i, align 8
  tail call void @BrotliFree(ptr noundef %m, ptr noundef %7) #3
  %words_instance_.i = getelementptr inbounds nuw i8, ptr %dict, i64 1296
  %8 = load ptr, ptr %words_instance_.i, align 8
  tail call void @BrotliFree(ptr noundef %m, ptr noundef %8) #3
  br label %if.end20.sink.split

for.body12:                                       ; preds = %for.body12.lr.ph, %for.body12
  %i.126 = phi i64 [ 0, %for.body12.lr.ph ], [ %inc16, %for.body12 ]
  %9 = load ptr, ptr %instances_, align 8
  %arrayidx14 = getelementptr inbounds %struct.BrotliEncoderDictionary, ptr %9, i64 %i.126
  %hash_table_data_words_.i16 = getelementptr inbounds nuw i8, ptr %arrayidx14, i64 112
  %10 = load ptr, ptr %hash_table_data_words_.i16, align 8
  tail call void @BrotliFree(ptr noundef %m, ptr noundef %10) #3
  %hash_table_data_lengths_.i17 = getelementptr inbounds nuw i8, ptr %arrayidx14, i64 120
  %11 = load ptr, ptr %hash_table_data_lengths_.i17, align 8
  tail call void @BrotliFree(ptr noundef %m, ptr noundef %11) #3
  %buckets_data_.i18 = getelementptr inbounds nuw i8, ptr %arrayidx14, i64 136
  %12 = load ptr, ptr %buckets_data_.i18, align 8
  tail call void @BrotliFree(ptr noundef %m, ptr noundef %12) #3
  %dict_words_data_.i19 = getelementptr inbounds nuw i8, ptr %arrayidx14, i64 152
  %13 = load ptr, ptr %dict_words_data_.i19, align 8
  tail call void @BrotliFree(ptr noundef %m, ptr noundef %13) #3
  %words_instance_.i20 = getelementptr inbounds nuw i8, ptr %arrayidx14, i64 160
  %14 = load ptr, ptr %words_instance_.i20, align 8
  tail call void @BrotliFree(ptr noundef %m, ptr noundef %14) #3
  %trie.i21 = getelementptr inbounds nuw i8, ptr %arrayidx14, i64 56
  %trie.val.i22 = load ptr, ptr %trie.i21, align 8
  tail call void @BrotliFree(ptr noundef %m, ptr noundef %trie.val.i22) #3
  %inc16 = add nuw i64 %i.126, 1
  %15 = load i64, ptr %num_instances_, align 8
  %cmp11 = icmp ult i64 %inc16, %15
  br i1 %cmp11, label %for.body12, label %if.end20.sink.split, !llvm.loop !6

if.end20.sink.split:                              ; preds = %for.body12, %if.then
  %.sink = phi i64 [ 1192, %if.then ], [ 1304, %for.body12 ]
  %instances_19 = getelementptr inbounds nuw i8, ptr %dict, i64 %.sink
  %16 = load ptr, ptr %instances_19, align 8
  tail call void @BrotliFree(ptr noundef %m, ptr noundef %16) #3
  br label %if.end20

if.end20:                                         ; preds = %if.end20.sink.split, %for.end
  ret void
}